; Function Attrs: nounwind uwtable
define dso_local i32 @uv__udp_try_send(ptr noundef captures(none) %0, ptr noundef %1, i32 noundef %2, ptr noundef %3, i32 noundef %4) local_unnamed_addr #0 {
  %6 = alloca %union.uv__sockaddr, align 4
  %7 = alloca %struct.msghdr, align 8
  %8 = getelementptr inbounds nuw i8, ptr %0, i64 104
  %9 = load i64, ptr %8, align 8
  %.not = icmp eq i64 %9, 0
  br i1 %.not, label %10, label %.loopexit

10:                                               ; preds = %5
  %.not18 = icmp eq ptr %3, null
  br i1 %.not18, label %35, label %11

11:                                               ; preds = %10
  %12 = load i16, ptr %3, align 2
  call void @llvm.lifetime.start.p0(i64 28, ptr nonnull %6)
  %13 = getelementptr inbounds nuw i8, ptr %0, i64 176
  %14 = load i32, ptr %13, align 8
  %.not.i = icmp eq i32 %14, -1
  br i1 %.not.i, label %15, label %uv__udp_maybe_deferred_bind.exit.thread

15:                                               ; preds = %11
  switch i16 %12, label %17 [
    i16 2, label %.split13.i
    i16 10, label %.split.i
  ]

.split13.i:                                       ; preds = %15
  call void @llvm.memset.p0.i64(ptr noundef nonnull align 4 dereferenceable(16) %6, i8 0, i64 16, i1 false)
  store i16 2, ptr %6, align 4
  br label %.sink.split.i

.split.i:                                         ; preds = %15
  call void @llvm.memset.p0.i64(ptr noundef nonnull align 4 dereferenceable(28) %6, i8 0, i64 28, i1 false)
  store i16 10, ptr %6, align 4
  %16 = getelementptr inbounds nuw i8, ptr %6, i64 8
  call void @llvm.memcpy.p0.p0.i64(ptr noundef nonnull align 4 dereferenceable(16) %16, ptr noundef nonnull align 4 dereferenceable(16) @in6addr_any, i64 16, i1 false)
  br label %.sink.split.i

17:                                               ; preds = %15
  tail call void @abort() #11
  unreachable

.sink.split.i:                                    ; preds = %.split13.i, %.split.i
  %.sink.i = phi i32 [ 16, %.split13.i ], [ 28, %.split.i ]
  %18 = zext nneg i16 %12 to i32
  %19 = tail call i32 @uv__socket(i32 noundef %18, i32 noundef 2, i32 noundef 0) #9
  %20 = icmp slt i32 %19, 0
  br i1 %20, label %uv__udp_maybe_deferred_bind.exit.thread25, label %21

21:                                               ; preds = %.sink.split.i
  store i32 %19, ptr %13, align 8
  %22 = call i32 @bind(i32 noundef %19, ptr nonnull %6, i32 noundef %.sink.i) #9
  %.not41.i = icmp eq i32 %22, 0
  br i1 %.not41.i, label %._crit_edge.i, label %23

23:                                               ; preds = %21
  %24 = tail call ptr @__errno_location() #10
  %25 = load i32, ptr %24, align 4
  %26 = icmp eq i32 %25, 97
  br i1 %26, label %uv__udp_maybe_deferred_bind.exit.thread25, label %uv__udp_maybe_deferred_bind.exit

._crit_edge.i:                                    ; preds = %21
  %27 = load i16, ptr %6, align 4
  %28 = icmp eq i16 %27, 10
  %29 = getelementptr inbounds nuw i8, ptr %0, i64 88
  %30 = load i32, ptr %29, align 8
  %31 = or i32 %30, 4194304
  %32 = select i1 %28, i32 %31, i32 %30
  %33 = or i32 %32, 8192
  store i32 %33, ptr %29, align 8
  br label %uv__udp_maybe_deferred_bind.exit.thread

uv__udp_maybe_deferred_bind.exit.thread:          ; preds = %11, %._crit_edge.i
  call void @llvm.lifetime.end.p0(i64 28, ptr nonnull %6)
  br label %35

uv__udp_maybe_deferred_bind.exit.thread25:        ; preds = %.sink.split.i, %23
  %.0.i.ph = phi i32 [ %19, %.sink.split.i ], [ -22, %23 ]
  call void @llvm.lifetime.end.p0(i64 28, ptr nonnull %6)
  br label %.loopexit

uv__udp_maybe_deferred_bind.exit:                 ; preds = %23
  %34 = sub nsw i32 0, %25
  call void @llvm.lifetime.end.p0(i64 28, ptr nonnull %6)
  %.not19 = icmp eq i32 %25, 0
  br i1 %.not19, label %35, label %.loopexit

35:                                               ; preds = %uv__udp_maybe_deferred_bind.exit.thread, %10, %uv__udp_maybe_deferred_bind.exit
  %36 = getelementptr inbounds nuw i8, ptr %7, i64 8
  call void @llvm.memset.p0.i64(ptr noundef nonnull align 8 dereferenceable(56) %36, i8 0, i64 48, i1 false)
  store ptr %3, ptr %7, align 8
  %37 = getelementptr inbounds nuw i8, ptr %7, i64 8
  store i32 %4, ptr %37, align 8
  %38 = getelementptr inbounds nuw i8, ptr %7, i64 16
  store ptr %1, ptr %38, align 8
  %39 = zext i32 %2 to i64
  %40 = getelementptr inbounds nuw i8, ptr %7, i64 24
  store i64 %39, ptr %40, align 8
  %41 = getelementptr inbounds nuw i8, ptr %0, i64 176
  br label %42

42:                                               ; preds = %46, %35
  %43 = load i32, ptr %41, align 8
  %44 = call i64 @sendmsg(i32 noundef %43, ptr noundef nonnull %7, i32 noundef 0) #9
  %45 = icmp eq i64 %44, -1
  br i1 %45, label %46, label %.critedge20

46:                                               ; preds = %42
  %47 = tail call ptr @__errno_location() #10
  %48 = load i32, ptr %47, align 4
  switch i32 %48, label %49 [
    i32 4, label %42
    i32 11, label %.loopexit
    i32 105, label %.loopexit
  ]

49:                                               ; preds = %46
  %50 = sub nsw i32 0, %48
  br label %.loopexit

.critedge20:                                      ; preds = %42
  %51 = trunc i64 %44 to i32
  br label %.loopexit

.loopexit:                                        ; preds = %46, %46, %uv__udp_maybe_deferred_bind.exit.thread25, %uv__udp_maybe_deferred_bind.exit, %5, %.critedge20, %49
  %.0 = phi i32 [ %50, %49 ], [ %51, %.critedge20 ], [ -11, %5 ], [ %34, %uv__udp_maybe_deferred_bind.exit ], [ %.0.i.ph, %uv__udp_maybe_deferred_bind.exit.thread25 ], [ -11, %46 ], [ -11, %46 ]
  ret i32 %.0
}